; Function Attrs: nounwind uwtable
define hidden void @zif_phpdbg_color(ptr noundef readonly captures(none) %0, ptr readnone captures(none) %1) #0 {
  %3 = alloca i64, align 8
  %4 = alloca ptr, align 8
  %5 = alloca i64, align 8
  call void @llvm.lifetime.start.p0(i64 8, ptr nonnull %3) #27
  call void @llvm.lifetime.start.p0(i64 8, ptr nonnull %4) #27
  call void @llvm.lifetime.start.p0(i64 8, ptr nonnull %5) #27
  %6 = getelementptr inbounds nuw i8, ptr %0, i64 44
  %7 = load i32, ptr %6, align 4, !tbaa !4
  %8 = call i32 (i32, ptr, ...) @zend_parse_parameters(i32 noundef %7, ptr noundef nonnull @.str.6, ptr noundef nonnull %3, ptr noundef nonnull %4, ptr noundef nonnull %5) #27
  %9 = icmp eq i32 %8, -1
  br i1 %9, label %10, label %13

10:                                               ; preds = %2
  %11 = load ptr, ptr getelementptr inbounds nuw (i8, ptr @executor_globals, i64 960), align 8, !tbaa !7
  %12 = icmp ne ptr %11, null
  call void @llvm.assume(i1 %12)
  br label %20

13:                                               ; preds = %2
  %14 = load i64, ptr %3, align 8, !tbaa !79
  %switch = icmp ult i64 %14, 3
  br i1 %switch, label %15, label %19

15:                                               ; preds = %13
  %16 = trunc nuw i64 %14 to i32
  %17 = load ptr, ptr %4, align 8, !tbaa !78
  %18 = load i64, ptr %5, align 8, !tbaa !79
  call void @phpdbg_set_color_ex(i32 noundef %16, ptr noundef %17, i64 noundef %18) #27
  br label %20

19:                                               ; preds = %13
  call void (i32, ptr, ...) @zend_argument_value_error(i32 noundef 1, ptr noundef nonnull @.str.7) #27
  br label %20

20:                                               ; preds = %15, %19, %10
  call void @llvm.lifetime.end.p0(i64 8, ptr nonnull %5) #27
  call void @llvm.lifetime.end.p0(i64 8, ptr nonnull %4) #27
  call void @llvm.lifetime.end.p0(i64 8, ptr nonnull %3) #27
  ret void
}